target datalayout = "e-m:e-p270:32:32-p271:32:32-p272:64:64-i64:64-i128:128-f80:128-n8:16:32:64-S128"
target triple = "x86_64-pc-linux-gnu"

@g_assert_poison = external global ptr, align 8
@.str.26 = private unnamed_addr constant [40 x i8] c"src/hotspot/share/opto/library_call.cpp\00", align 1

; Function Attrs: mustprogress nounwind uwtable
define hidden noundef i64 @_ZN14LibraryCallKit28mo_decorator_for_access_kindENS_10AccessKindE(ptr noundef nonnull align 8 dereferenceable(108) %0, i32 noundef %1) #1 align 2 {
  %3 = alloca i64, align 8
  %4 = alloca ptr, align 8
  %5 = alloca i32, align 4
  store ptr %0, ptr %4, align 8
  store i32 %1, ptr %5, align 4
  %6 = load i32, ptr %5, align 4
  switch i32 %6, label %12 [
    i32 0, label %7
    i32 1, label %8
    i32 3, label %9
    i32 4, label %10
    i32 2, label %11
  ]

7:                                                ; preds = %2
  store i64 64, ptr %3, align 8
  br label %16

8:                                                ; preds = %2
  store i64 128, ptr %3, align 8
  br label %16

9:                                                ; preds = %2
  store i64 256, ptr %3, align 8
  br label %16

10:                                               ; preds = %2
  store i64 512, ptr %3, align 8
  br label %16

11:                                               ; preds = %2
  store i64 1024, ptr %3, align 8
  br label %16

12:                                               ; preds = %2
  br label %13

13:                                               ; preds = %12
  %14 = load ptr, ptr @g_assert_poison, align 8
  store i8 88, ptr %14, align 1
  call void @_Z28report_should_not_reach_herePKci(ptr noundef @.str.26, i32 noundef 2292) #10
  unreachable

15:                                               ; No predecessors!
  store i64 0, ptr %3, align 8
  br label %16

16:                                               ; preds = %15, %11, %10, %9, %8, %7
  %17 = load i64, ptr %3, align 8
  ret i64 %17
}