; Function Attrs: mustprogress nounwind uwtable
define hidden noundef range(i64 64, 1025) i64 @_ZN14LibraryCallKit28mo_decorator_for_access_kindENS_10AccessKindE(ptr nocapture noundef nonnull readnone align 8 dereferenceable(108) %0, i32 noundef %1) local_unnamed_addr #0 align 2 {
  %3 = icmp ult i32 %1, 5
  br i1 %3, label %switch.lookup, label %4

4:                                                ; preds = %2
  %5 = load ptr, ptr @g_assert_poison, align 8
  store i8 88, ptr %5, align 1
  tail call void @_Z28report_should_not_reach_herePKci(ptr noundef nonnull @.str.26, i32 noundef 2292) #14
  unreachable

switch.lookup:                                    ; preds = %2
  %6 = zext nneg i32 %1 to i64
  %switch.gep = getelementptr inbounds [5 x i64], ptr @switch.table._ZN14LibraryCallKit28mo_decorator_for_access_kindENS_10AccessKindE, i64 0, i64 %6
  %switch.load = load i64, ptr %switch.gep, align 8
  ret i64 %switch.load
}